; Function Attrs: mustprogress nofree norecurse nosync nounwind memory(read, argmem: readwrite, inaccessiblemem: none) uwtable
define noundef zeroext i1 @_ZN11OpenImageIO6v3_1_07Strutil13string_is_intENS0_17basic_string_viewIcSt11char_traitsIcEEE(ptr noundef captures(none) %0) local_unnamed_addr #14 personality ptr @__gxx_personality_v0 {
  %2 = alloca i64, align 8
  %3 = alloca %"class.OpenImageIO::v3_1_0::basic_string_view", align 8
  call void @llvm.lifetime.start.p0(i64 8, ptr nonnull %2) #16
  %4 = load ptr, ptr %0, align 8, !tbaa !67
  store ptr %4, ptr %3, align 8, !tbaa !67
  %5 = getelementptr inbounds nuw i8, ptr %3, i64 8
  %6 = getelementptr inbounds nuw i8, ptr %0, i64 8
  %7 = load i64, ptr %6, align 8, !tbaa !64
  store i64 %7, ptr %5, align 8, !tbaa !64
  %8 = call noundef i32 @_ZN11OpenImageIO6v3_1_07Strutil4stoiENS0_17basic_string_viewIcSt11char_traitsIcEEEPmi(ptr noundef nonnull %3, ptr noundef nonnull %2, i32 noundef 10)
  %9 = load i64, ptr %2, align 8, !tbaa !86
  %.not = icmp eq i64 %9, 0
  br i1 %.not, label %_ZN11OpenImageIO6v3_1_07Strutil15skip_whitespaceERNS0_17basic_string_viewIcSt11char_traitsIcEEE.exit.thread, label %10

10:                                               ; preds = %1
  %spec.select.i = call i64 @llvm.umin.i64(i64 %9, i64 %7)
  %11 = getelementptr inbounds nuw i8, ptr %4, i64 %spec.select.i
  store ptr %11, ptr %0, align 8, !tbaa !67
  %12 = sub i64 %7, %spec.select.i
  store i64 %12, ptr %6, align 8, !tbaa !64
  %.not4.i = icmp eq i64 %12, 0
  br i1 %.not4.i, label %_ZN11OpenImageIO6v3_1_07Strutil15skip_whitespaceERNS0_17basic_string_viewIcSt11char_traitsIcEEE.exit.thread, label %.lr.ph.i

.lr.ph.i:                                         ; preds = %10, %16
  %13 = phi i64 [ %18, %16 ], [ %12, %10 ]
  %14 = phi ptr [ %17, %16 ], [ %11, %10 ]
  %15 = load i8, ptr %14, align 1, !tbaa !3
  switch i8 %15, label %_ZN11OpenImageIO6v3_1_07Strutil15skip_whitespaceERNS0_17basic_string_viewIcSt11char_traitsIcEEE.exit.thread [
    i8 32, label %16
    i8 10, label %16
    i8 9, label %16
    i8 13, label %16
  ]

16:                                               ; preds = %.lr.ph.i, %.lr.ph.i, %.lr.ph.i, %.lr.ph.i
  %17 = getelementptr inbounds nuw i8, ptr %14, i64 1
  store ptr %17, ptr %0, align 8, !tbaa !67
  %18 = add i64 %13, -1
  store i64 %18, ptr %6, align 8, !tbaa !64
  %.not.i = icmp eq i64 %18, 0
  br i1 %.not.i, label %_ZN11OpenImageIO6v3_1_07Strutil15skip_whitespaceERNS0_17basic_string_viewIcSt11char_traitsIcEEE.exit.thread, label %.lr.ph.i, !llvm.loop !79

_ZN11OpenImageIO6v3_1_07Strutil15skip_whitespaceERNS0_17basic_string_viewIcSt11char_traitsIcEEE.exit.thread: ; preds = %16, %.lr.ph.i, %10, %1
  %19 = phi i1 [ false, %1 ], [ true, %10 ], [ false, %.lr.ph.i ], [ true, %16 ]
  call void @llvm.lifetime.end.p0(i64 8, ptr nonnull %2) #16
  ret i1 %19
}